; Function Attrs: mustprogress uwtable
define hidden noundef zeroext i1 @_ZN4lean14is_constructorERKNS_11environmentERKNS_4nameE(ptr noundef nonnull align 8 dereferenceable(8) %0, ptr noundef nonnull align 8 dereferenceable(8) %1) local_unnamed_addr #0 personality ptr @__gxx_personality_v0 {
  %3 = alloca %"class.lean::optional", align 8
  call void @llvm.lifetime.start.p0(i64 16, ptr nonnull %3) #16
  call void @_ZNK4lean11environment4findERKNS_4nameE(ptr dead_on_unwind nonnull writable sret(%"class.lean::optional") align 8 %3, ptr noundef nonnull align 8 dereferenceable(8) %0, ptr noundef nonnull align 8 dereferenceable(8) %1)
  %4 = load i8, ptr %3, align 8, !tbaa !15, !range !18, !noundef !19
  %5 = trunc nuw i8 %4 to i1
  br i1 %5, label %6, label %_ZN4lean8optionalINS_13constant_infoEED2Ev.exit

6:                                                ; preds = %2
  %7 = getelementptr inbounds nuw i8, ptr %3, i64 8
  %8 = load ptr, ptr %7, align 8, !tbaa !3
  %9 = getelementptr i8, ptr %8, i64 4
  %.val.i.i.i = load i32, ptr %9, align 4
  %.mask.i = and i32 %.val.i.i.i, -16777216
  %10 = icmp eq i32 %.mask.i, 100663296
  %11 = ptrtoint ptr %8 to i64
  %12 = and i64 %11, 1
  %.not.i.i.i = icmp eq i64 %12, 0
  br i1 %.not.i.i.i, label %13, label %_ZN4lean8optionalINS_13constant_infoEED2Ev.exit

13:                                               ; preds = %6
  %14 = load i32, ptr %8, align 4, !tbaa !8
  %15 = icmp sgt i32 %14, 1
  br i1 %15, label %16, label %18, !prof !11

16:                                               ; preds = %13
  %17 = add nsw i32 %14, -1
  store i32 %17, ptr %8, align 4, !tbaa !8
  br label %_ZN4lean8optionalINS_13constant_infoEED2Ev.exit

18:                                               ; preds = %13
  %.not.i.i.i.i = icmp eq i32 %14, 0
  br i1 %.not.i.i.i.i, label %_ZN4lean8optionalINS_13constant_infoEED2Ev.exit, label %19

19:                                               ; preds = %18
  invoke void @lean_dec_ref_cold(ptr noundef nonnull %8)
          to label %_ZN4lean8optionalINS_13constant_infoEED2Ev.exit unwind label %20

20:                                               ; preds = %19
  %21 = landingpad { ptr, i32 }
          catch ptr null
  %22 = extractvalue { ptr, i32 } %21, 0
  call void @__clang_call_terminate(ptr %22) #17
  unreachable

_ZN4lean8optionalINS_13constant_infoEED2Ev.exit:  ; preds = %2, %6, %16, %18, %19
  %spec.select = phi i1 [ %10, %6 ], [ %10, %16 ], [ %10, %18 ], [ %10, %19 ], [ false, %2 ]
  call void @llvm.lifetime.end.p0(i64 16, ptr nonnull %3) #16
  ret i1 %spec.select
}